target datalayout = "e-m:e-p270:32:32-p271:32:32-p272:64:64-i64:64-i128:128-f80:128-n8:16:32:64-S128"
target triple = "x86_64-unknown-linux-gnu"

%"class.smt::eq_justification" = type { ptr }
%"class.smt::enode" = type { ptr, ptr, ptr, ptr, i32, i32, i32, i16, i32, i8, i8, %class.ptr_vector, %class.id_var_list, %"struct.smt::trans_justification", %class.approx_set, %class.approx_set, [0 x ptr] }
%class.ptr_vector = type { %class.vector }
%class.vector = type { ptr }
%class.id_var_list = type { i32, ptr }
%"struct.smt::trans_justification" = type { ptr, %"class.smt::eq_justification" }
%class.approx_set = type { %class.approx_set_tpl }
%class.approx_set_tpl = type { i64 }

; Function Attrs: mustprogress nounwind uwtable
define hidden noundef ptr @_ZN3smt5enode25get_eq_enode_with_min_genEv(ptr noundef nonnull align 8 dereferenceable(112) %this) #4 align 2 {
entry:
  %retval = alloca ptr, align 8
  %this.addr = alloca ptr, align 8
  %r = alloca ptr, align 8
  %curr = alloca ptr, align 8
  store ptr %this, ptr %this.addr, align 8
  %this1 = load ptr, ptr %this.addr, align 8
  %m_generation = getelementptr inbounds %"class.smt::enode", ptr %this1, i32 0, i32 5
  %0 = load i32, ptr %m_generation, align 4
  %cmp = icmp eq i32 %0, 0
  br i1 %cmp, label %if.then, label %if.end

if.then:                                          ; preds = %entry
  store ptr %this1, ptr %retval, align 8
  br label %return

if.end:                                           ; preds = %entry
  store ptr %this1, ptr %r, align 8
  store ptr %this1, ptr %curr, align 8
  br label %do.body

do.body:                                          ; preds = %do.cond, %if.end
  %1 = load ptr, ptr %curr, align 8
  %m_generation2 = getelementptr inbounds %"class.smt::enode", ptr %1, i32 0, i32 5
  %2 = load i32, ptr %m_generation2, align 4
  %3 = load ptr, ptr %r, align 8
  %m_generation3 = getelementptr inbounds %"class.smt::enode", ptr %3, i32 0, i32 5
  %4 = load i32, ptr %m_generation3, align 4
  %cmp4 = icmp ult i32 %2, %4
  br i1 %cmp4, label %if.then5, label %if.end10

if.then5:                                         ; preds = %do.body
  %5 = load ptr, ptr %curr, align 8
  store ptr %5, ptr %r, align 8
  %6 = load ptr, ptr %r, align 8
  %m_generation6 = getelementptr inbounds %"class.smt::enode", ptr %6, i32 0, i32 5
  %7 = load i32, ptr %m_generation6, align 4
  %cmp7 = icmp eq i32 %7, 0
  br i1 %cmp7, label %if.then8, label %if.end9

if.then8:                                         ; preds = %if.then5
  %8 = load ptr, ptr %r, align 8
  store ptr %8, ptr %retval, align 8
  br label %return

if.end9:                                          ; preds = %if.then5
  br label %if.end10

if.end10:                                         ; preds = %if.end9, %do.body
  %9 = load ptr, ptr %curr, align 8
  %m_next = getelementptr inbounds %"class.smt::enode", ptr %9, i32 0, i32 2
  %10 = load ptr, ptr %m_next, align 8
  store ptr %10, ptr %curr, align 8
  br label %do.cond

do.cond:                                          ; preds = %if.end10
  %11 = load ptr, ptr %curr, align 8
  %cmp11 = icmp ne ptr %11, %this1
  br i1 %cmp11, label %do.body, label %do.end, !llvm.loop !12

do.end:                                           ; preds = %do.cond
  %12 = load ptr, ptr %r, align 8
  store ptr %12, ptr %retval, align 8
  br label %return

return:                                           ; preds = %do.end, %if.then8, %if.then
  %13 = load ptr, ptr %retval, align 8
  ret ptr %13
}