; Function Attrs: mustprogress nofree norecurse nosync nounwind willreturn memory(read, inaccessiblemem: none) uwtable
define hidden noundef ptr @_ZN3smt5enode25get_eq_enode_with_min_genEv(ptr noundef nonnull readonly align 8 dereferenceable(112) %this) local_unnamed_addr #6 align 2 {
entry:
  %m_generation = getelementptr inbounds i8, ptr %this, i64 36
  %0 = load i32, ptr %m_generation, align 4
  %cmp = icmp eq i32 %0, 0
  br i1 %cmp, label %return, label %do.body

do.body:                                          ; preds = %entry, %if.end10
  %r.0 = phi ptr [ %r.1, %if.end10 ], [ %this, %entry ]
  %curr.0 = phi ptr [ %3, %if.end10 ], [ %this, %entry ]
  %m_generation2 = getelementptr inbounds i8, ptr %curr.0, i64 36
  %1 = load i32, ptr %m_generation2, align 4
  %m_generation3 = getelementptr inbounds i8, ptr %r.0, i64 36
  %2 = load i32, ptr %m_generation3, align 4
  %cmp4 = icmp ult i32 %1, %2
  br i1 %cmp4, label %if.then5, label %if.end10

if.then5:                                         ; preds = %do.body
  %cmp7 = icmp eq i32 %1, 0
  br i1 %cmp7, label %return, label %if.end10

if.end10:                                         ; preds = %if.then5, %do.body
  %r.1 = phi ptr [ %curr.0, %if.then5 ], [ %r.0, %do.body ]
  %m_next = getelementptr inbounds i8, ptr %curr.0, i64 16
  %3 = load ptr, ptr %m_next, align 8
  %cmp11.not = icmp eq ptr %3, %this
  br i1 %cmp11.not, label %return, label %do.body, !llvm.loop !12

return:                                           ; preds = %if.end10, %if.then5, %entry
  %retval.0 = phi ptr [ %this, %entry ], [ %r.1, %if.end10 ], [ %curr.0, %if.then5 ]
  ret ptr %retval.0
}